target datalayout = "e-m:e-p270:32:32-p271:32:32-p272:64:64-i64:64-i128:128-f80:128-n8:16:32:64-S128"
target triple = "x86_64-pc-linux-gnu"

%struct.AVFormatContext = type { ptr, ptr, ptr, ptr, ptr, i32, i32, ptr, i32, ptr, i32, ptr, ptr, i64, i64, i64, i32, i32, i32, i64, i64, ptr, i32, i32, ptr, i32, i32, i32, i32, ptr, i64, i32, i32, %struct.AVIOInterruptCB, i32, i32, i32, i32, i64, i32, i32, i32, i32, i32, i32, i32, i32, i32, i32, i32, i32, i64, i32, i32, i32, i32, i32, ptr, ptr, ptr, ptr, i32, ptr, ptr, ptr, ptr, i32, ptr, ptr, i64, ptr, ptr, ptr, i64 }
%struct.AVIOInterruptCB = type { ptr, ptr }
%struct.AVPacket = type { ptr, i64, i64, ptr, i32, i32, i32, ptr, i32, i64, i64, ptr, ptr, %struct.AVRational }
%struct.AVRational = type { i32, i32 }
%struct.LXFDemuxContext = type { i32, i32, i32, i32, i32 }

@.str.14 = private unnamed_addr constant [41 x i8] c"got packet with illegal stream index %u\0A\00", align 1
@.str.15 = private unnamed_addr constant [49 x i8] c"got audio packet without having an audio stream\0A\00", align 1

; Function Attrs: nounwind uwtable
define internal i32 @lxf_read_packet(ptr noundef %0, ptr noundef %1) #0 {
  %3 = alloca i32, align 4
  %4 = alloca ptr, align 8
  %5 = alloca ptr, align 8
  %6 = alloca ptr, align 8
  %7 = alloca ptr, align 8
  %8 = alloca i32, align 4
  %9 = alloca i32, align 4
  %10 = alloca i32, align 4
  %11 = alloca i32, align 4
  store ptr %0, ptr %4, align 8, !tbaa !13
  store ptr %1, ptr %5, align 8, !tbaa !70
  call void @llvm.lifetime.start.p0(i64 8, ptr %6) #8
  %12 = load ptr, ptr %4, align 8, !tbaa !13
  %13 = getelementptr inbounds nuw %struct.AVFormatContext, ptr %12, i32 0, i32 3
  %14 = load ptr, ptr %13, align 8, !tbaa !15
  store ptr %14, ptr %6, align 8, !tbaa !30
  call void @llvm.lifetime.start.p0(i64 8, ptr %7) #8
  %15 = load ptr, ptr %4, align 8, !tbaa !13
  %16 = getelementptr inbounds nuw %struct.AVFormatContext, ptr %15, i32 0, i32 4
  %17 = load ptr, ptr %16, align 8, !tbaa !32
  store ptr %17, ptr %7, align 8, !tbaa !33
  call void @llvm.lifetime.start.p0(i64 4, ptr %8) #8
  call void @llvm.lifetime.start.p0(i64 4, ptr %9) #8
  call void @llvm.lifetime.start.p0(i64 4, ptr %10) #8
  %18 = load ptr, ptr %4, align 8, !tbaa !13
  %19 = call i32 @get_packet_header(ptr noundef %18)
  store i32 %19, ptr %9, align 4, !tbaa !34
  %20 = icmp slt i32 %19, 0
  br i1 %20, label %21, label %23

21:                                               ; preds = %2
  %22 = load i32, ptr %9, align 4, !tbaa !34
  store i32 %22, ptr %3, align 4
  store i32 1, ptr %11, align 4
  br label %94

23:                                               ; preds = %2
  %24 = load ptr, ptr %6, align 8, !tbaa !30
  %25 = getelementptr inbounds nuw %struct.LXFDemuxContext, ptr %24, i32 0, i32 3
  %26 = load i32, ptr %25, align 4, !tbaa !72
  store i32 %26, ptr %8, align 4, !tbaa !34
  %27 = load i32, ptr %8, align 4, !tbaa !34
  %28 = icmp ugt i32 %27, 1
  br i1 %28, label %29, label %32

29:                                               ; preds = %23
  %30 = load ptr, ptr %4, align 8, !tbaa !13
  %31 = load i32, ptr %8, align 4, !tbaa !34
  call void (ptr, i32, ptr, ...) @av_log(ptr noundef %30, i32 noundef 24, ptr noundef @.str.14, i32 noundef %31)
  store i32 -1329874258, ptr %3, align 4
  store i32 1, ptr %11, align 4
  br label %94

32:                                               ; preds = %23
  %33 = load i32, ptr %8, align 4, !tbaa !34
  %34 = icmp eq i32 %33, 1
  br i1 %34, label %35, label %42

35:                                               ; preds = %32
  %36 = load ptr, ptr %4, align 8, !tbaa !13
  %37 = getelementptr inbounds nuw %struct.AVFormatContext, ptr %36, i32 0, i32 6
  %38 = load i32, ptr %37, align 4, !tbaa !73
  %39 = icmp ult i32 %38, 2
  br i1 %39, label %40, label %42

40:                                               ; preds = %35
  %41 = load ptr, ptr %4, align 8, !tbaa !13
  call void (ptr, i32, ptr, ...) @av_log(ptr noundef %41, i32 noundef 16, ptr noundef @.str.15)
  store i32 -1094995529, ptr %3, align 4
  store i32 1, ptr %11, align 4
  br label %94

42:                                               ; preds = %35, %32
  %43 = load ptr, ptr %5, align 8, !tbaa !70
  %44 = load i32, ptr %9, align 4, !tbaa !34
  %45 = call i32 @av_new_packet(ptr noundef %43, i32 noundef %44)
  store i32 %45, ptr %10, align 4, !tbaa !34
  %46 = icmp slt i32 %45, 0
  br i1 %46, label %47, label %49

47:                                               ; preds = %42
  %48 = load i32, ptr %10, align 4, !tbaa !34
  store i32 %48, ptr %3, align 4
  store i32 1, ptr %11, align 4
  br label %94

49:                                               ; preds = %42
  %50 = load ptr, ptr %7, align 8, !tbaa !33
  %51 = load ptr, ptr %5, align 8, !tbaa !70
  %52 = getelementptr inbounds nuw %struct.AVPacket, ptr %51, i32 0, i32 3
  %53 = load ptr, ptr %52, align 8, !tbaa !74
  %54 = load i32, ptr %9, align 4, !tbaa !34
  %55 = call i32 @avio_read(ptr noundef %50, ptr noundef %53, i32 noundef %54)
  store i32 %55, ptr %10, align 4, !tbaa !34
  %56 = load i32, ptr %9, align 4, !tbaa !34
  %57 = icmp ne i32 %55, %56
  br i1 %57, label %58, label %66

58:                                               ; preds = %49
  %59 = load i32, ptr %10, align 4, !tbaa !34
  %60 = icmp slt i32 %59, 0
  br i1 %60, label %61, label %63

61:                                               ; preds = %58
  %62 = load i32, ptr %10, align 4, !tbaa !34
  br label %64

63:                                               ; preds = %58
  br label %64

64:                                               ; preds = %63, %61
  %65 = phi i32 [ %62, %61 ], [ -541478725, %63 ]
  store i32 %65, ptr %3, align 4
  store i32 1, ptr %11, align 4
  br label %94

66:                                               ; preds = %49
  %67 = load i32, ptr %8, align 4, !tbaa !34
  %68 = load ptr, ptr %5, align 8, !tbaa !70
  %69 = getelementptr inbounds nuw %struct.AVPacket, ptr %68, i32 0, i32 5
  store i32 %67, ptr %69, align 4, !tbaa !75
  %70 = load i32, ptr %8, align 4, !tbaa !34
  %71 = icmp ne i32 %70, 0
  br i1 %71, label %92, label %72

72:                                               ; preds = %66
  %73 = load ptr, ptr %6, align 8, !tbaa !30
  %74 = getelementptr inbounds nuw %struct.LXFDemuxContext, ptr %73, i32 0, i32 2
  %75 = load i32, ptr %74, align 4, !tbaa !76
  %76 = lshr i32 %75, 22
  %77 = and i32 %76, 3
  %78 = icmp ult i32 %77, 2
  br i1 %78, label %79, label %84

79:                                               ; preds = %72
  %80 = load ptr, ptr %5, align 8, !tbaa !70
  %81 = getelementptr inbounds nuw %struct.AVPacket, ptr %80, i32 0, i32 6
  %82 = load i32, ptr %81, align 8, !tbaa !77
  %83 = or i32 %82, 1
  store i32 %83, ptr %81, align 8, !tbaa !77
  br label %84

84:                                               ; preds = %79, %72
  %85 = load ptr, ptr %6, align 8, !tbaa !30
  %86 = getelementptr inbounds nuw %struct.LXFDemuxContext, ptr %85, i32 0, i32 1
  %87 = load i32, ptr %86, align 4, !tbaa !78
  %88 = add nsw i32 %87, 1
  store i32 %88, ptr %86, align 4, !tbaa !78
  %89 = sext i32 %87 to i64
  %90 = load ptr, ptr %5, align 8, !tbaa !70
  %91 = getelementptr inbounds nuw %struct.AVPacket, ptr %90, i32 0, i32 2
  store i64 %89, ptr %91, align 8, !tbaa !79
  br label %92

92:                                               ; preds = %84, %66
  %93 = load i32, ptr %9, align 4, !tbaa !34
  store i32 %93, ptr %3, align 4
  store i32 1, ptr %11, align 4
  br label %94

94:                                               ; preds = %92, %64, %47, %40, %29, %21
  call void @llvm.lifetime.end.p0(i64 4, ptr %10) #8
  call void @llvm.lifetime.end.p0(i64 4, ptr %9) #8
  call void @llvm.lifetime.end.p0(i64 4, ptr %8) #8
  call void @llvm.lifetime.end.p0(i64 8, ptr %7) #8
  call void @llvm.lifetime.end.p0(i64 8, ptr %6) #8
  %95 = load i32, ptr %3, align 4
  ret i32 %95
}