; Function Attrs: nounwind uwtable
define internal i32 @lxf_read_packet(ptr noundef %0, ptr noundef %1) #1 {
  %3 = getelementptr inbounds nuw i8, ptr %0, i64 24
  %4 = load ptr, ptr %3, align 8, !tbaa !11
  %5 = getelementptr inbounds nuw i8, ptr %0, i64 32
  %6 = load ptr, ptr %5, align 8, !tbaa !26
  %7 = tail call fastcc i32 @get_packet_header(ptr noundef %0)
  %8 = icmp slt i32 %7, 0
  br i1 %8, label %47, label %9

9:                                                ; preds = %2
  %10 = getelementptr inbounds nuw i8, ptr %4, i64 12
  %11 = load i32, ptr %10, align 4, !tbaa !59
  %12 = icmp ugt i32 %11, 1
  br i1 %12, label %13, label %14

13:                                               ; preds = %9
  tail call void (ptr, i32, ptr, ...) @av_log(ptr noundef nonnull %0, i32 noundef 24, ptr noundef nonnull @.str.14, i32 noundef %11) #7
  br label %47

14:                                               ; preds = %9
  %15 = icmp eq i32 %11, 1
  br i1 %15, label %16, label %21

16:                                               ; preds = %14
  %17 = getelementptr inbounds nuw i8, ptr %0, i64 44
  %18 = load i32, ptr %17, align 4, !tbaa !60
  %19 = icmp ult i32 %18, 2
  br i1 %19, label %20, label %21

20:                                               ; preds = %16
  tail call void (ptr, i32, ptr, ...) @av_log(ptr noundef nonnull %0, i32 noundef 16, ptr noundef nonnull @.str.15) #7
  br label %47

21:                                               ; preds = %16, %14
  %22 = tail call i32 @av_new_packet(ptr noundef %1, i32 noundef %7) #7
  %23 = icmp slt i32 %22, 0
  br i1 %23, label %47, label %24

24:                                               ; preds = %21
  %25 = getelementptr inbounds nuw i8, ptr %1, i64 24
  %26 = load ptr, ptr %25, align 8, !tbaa !61
  %27 = tail call i32 @avio_read(ptr noundef %6, ptr noundef %26, i32 noundef %7) #7
  %.not = icmp eq i32 %27, %7
  br i1 %.not, label %31, label %28

28:                                               ; preds = %24
  %29 = icmp slt i32 %27, 0
  %30 = select i1 %29, i32 %27, i32 -541478725
  br label %47

31:                                               ; preds = %24
  %32 = getelementptr inbounds nuw i8, ptr %1, i64 36
  store i32 %11, ptr %32, align 4, !tbaa !62
  %.not33 = icmp eq i32 %11, 0
  br i1 %.not33, label %33, label %47

33:                                               ; preds = %31
  %34 = getelementptr inbounds nuw i8, ptr %4, i64 8
  %35 = load i32, ptr %34, align 4, !tbaa !63
  %36 = and i32 %35, 8388608
  %.not34.not = icmp eq i32 %36, 0
  br i1 %.not34.not, label %37, label %41

37:                                               ; preds = %33
  %38 = getelementptr inbounds nuw i8, ptr %1, i64 40
  %39 = load i32, ptr %38, align 8, !tbaa !64
  %40 = or i32 %39, 1
  store i32 %40, ptr %38, align 8, !tbaa !64
  br label %41

41:                                               ; preds = %37, %33
  %42 = getelementptr inbounds nuw i8, ptr %4, i64 4
  %43 = load i32, ptr %42, align 4, !tbaa !65
  %44 = add nsw i32 %43, 1
  store i32 %44, ptr %42, align 4, !tbaa !65
  %45 = sext i32 %43 to i64
  %46 = getelementptr inbounds nuw i8, ptr %1, i64 16
  store i64 %45, ptr %46, align 8, !tbaa !66
  br label %47

47:                                               ; preds = %31, %41, %21, %2, %28, %20, %13
  %.0 = phi i32 [ -1329874258, %13 ], [ -1094995529, %20 ], [ %30, %28 ], [ %7, %2 ], [ %22, %21 ], [ %7, %41 ], [ %7, %31 ]
  ret i32 %.0
}